target datalayout = "e-m:e-p270:32:32-p271:32:32-p272:64:64-i64:64-i128:128-f80:128-n8:16:32:64-S128"
target triple = "x86_64-pc-linux-gnu"

%"class.std::__1::basic_streambuf" = type { ptr, %"class.std::__1::locale", ptr, ptr, ptr, ptr, ptr, ptr }
%"class.std::__1::locale" = type { ptr }
%"class.std::__1::fpos" = type { %struct.__mbstate_t, i64 }
%struct.__mbstate_t = type { i32, %union.anon }
%union.anon = type { i32 }
%"struct.std::__1::__less" = type { i8 }

; Function Attrs: mustprogress nounwind uwtable
define linkonce_odr hidden noundef zeroext i1 @_ZNKSt3__16__lessIvvEclB8ne210000IPcS3_EEbRKT_RKT0_(ptr noundef nonnull align 1 dereferenceable(1) %0, ptr noundef nonnull align 8 dereferenceable(8) %1, ptr noundef nonnull align 8 dereferenceable(8) %2) #1 comdat align 2 {
  %4 = alloca ptr, align 8
  %5 = alloca ptr, align 8
  %6 = alloca ptr, align 8
  store ptr %0, ptr %4, align 8, !tbaa !73
  store ptr %1, ptr %5, align 8, !tbaa !54
  store ptr %2, ptr %6, align 8, !tbaa !54
  %7 = load ptr, ptr %5, align 8, !tbaa !54
  %8 = load ptr, ptr %7, align 8, !tbaa !32
  %9 = load ptr, ptr %6, align 8, !tbaa !54
  %10 = load ptr, ptr %9, align 8, !tbaa !32
  %11 = icmp ult ptr %8, %10
  ret i1 %11
}

; Function Attrs: inlinehint mustprogress nounwind uwtable
define linkonce_odr hidden noundef nonnull align 8 dereferenceable(8) ptr @_ZNSt3__13minB8ne210000IPcNS_6__lessIvvEEEERKT_S6_S6_T0_(ptr noundef nonnull align 8 dereferenceable(8) %0, ptr noundef nonnull align 8 dereferenceable(8) %1) #3 comdat {
  %3 = alloca %"struct.std::__1::__less", align 1
  %4 = alloca ptr, align 8
  %5 = alloca ptr, align 8
  store ptr %0, ptr %4, align 8, !tbaa !54
  store ptr %1, ptr %5, align 8, !tbaa !54
  %6 = load ptr, ptr %5, align 8, !tbaa !54
  %7 = load ptr, ptr %4, align 8, !tbaa !54
  %8 = call noundef zeroext i1 @_ZNKSt3__16__lessIvvEclB8ne210000IPcS3_EEbRKT_RKT0_(ptr noundef nonnull align 1 dereferenceable(1) %3, ptr noundef nonnull align 8 dereferenceable(8) %6, ptr noundef nonnull align 8 dereferenceable(8) %7)
  br i1 %8, label %9, label %11

9:                                                ; preds = %2
  %10 = load ptr, ptr %5, align 8, !tbaa !54
  br label %13

11:                                               ; preds = %2
  %12 = load ptr, ptr %4, align 8, !tbaa !54
  br label %13

13:                                               ; preds = %11, %9
  %14 = phi ptr [ %10, %9 ], [ %12, %11 ]
  ret ptr %14
}

; Function Attrs: inlinehint mustprogress uwtable
define linkonce_odr hidden noundef nonnull align 8 dereferenceable(8) ptr @_ZNSt3__13maxB8ne210000IPcNS_6__lessIvvEEEERKT_S6_S6_T0_(ptr noundef nonnull align 8 dereferenceable(8) %0, ptr noundef nonnull align 8 dereferenceable(8) %1) #7 comdat {
  %3 = alloca %"struct.std::__1::__less", align 1
  %4 = alloca ptr, align 8
  %5 = alloca ptr, align 8
  store ptr %0, ptr %4, align 8, !tbaa !54
  store ptr %1, ptr %5, align 8, !tbaa !54
  %6 = load ptr, ptr %4, align 8, !tbaa !54
  %7 = load ptr, ptr %5, align 8, !tbaa !54
  %8 = call noundef zeroext i1 @_ZNKSt3__16__lessIvvEclB8ne210000IPcS3_EEbRKT_RKT0_(ptr noundef nonnull align 1 dereferenceable(1) %3, ptr noundef nonnull align 8 dereferenceable(8) %6, ptr noundef nonnull align 8 dereferenceable(8) %7)
  br i1 %8, label %9, label %11

9:                                                ; preds = %2
  %10 = load ptr, ptr %5, align 8, !tbaa !54
  br label %13

11:                                               ; preds = %2
  %12 = load ptr, ptr %4, align 8, !tbaa !54
  br label %13

13:                                               ; preds = %11, %9
  %14 = phi ptr [ %10, %9 ], [ %12, %11 ]
  ret ptr %14
}

; Function Attrs: mustprogress nounwind uwtable
define linkonce_odr hidden void @_ZNSt3__115basic_streambufIcNS_11char_traitsIcEEE7__pbumpB8ne210000El(ptr noundef nonnull align 8 dereferenceable(64) %0, i64 noundef %1) #1 comdat align 2 {
  %3 = alloca ptr, align 8
  %4 = alloca i64, align 8
  store ptr %0, ptr %3, align 8, !tbaa !23
  store i64 %1, ptr %4, align 8, !tbaa !9
  %5 = load ptr, ptr %3, align 8
  %6 = load i64, ptr %4, align 8, !tbaa !9
  %7 = getelementptr inbounds nuw %"class.std::__1::basic_streambuf", ptr %5, i32 0, i32 6
  %8 = load ptr, ptr %7, align 8, !tbaa !29
  %9 = getelementptr inbounds i8, ptr %8, i64 %6
  store ptr %9, ptr %7, align 8, !tbaa !29
  ret void
}

; Function Attrs: inlinehint mustprogress nounwind uwtable
define available_externally void @_ZNSt3__115basic_streambufIcNS_11char_traitsIcEEE4setpEPcS4_(ptr noundef nonnull align 8 dereferenceable(64) %0, ptr noundef %1, ptr noundef %2) #3 align 2 {
  %4 = alloca ptr, align 8
  %5 = alloca ptr, align 8
  %6 = alloca ptr, align 8
  store ptr %0, ptr %4, align 8, !tbaa !23
  store ptr %1, ptr %5, align 8, !tbaa !32
  store ptr %2, ptr %6, align 8, !tbaa !32
  %7 = load ptr, ptr %4, align 8
  %8 = load ptr, ptr %5, align 8, !tbaa !32
  %9 = getelementptr inbounds nuw %"class.std::__1::basic_streambuf", ptr %7, i32 0, i32 6
  store ptr %8, ptr %9, align 8, !tbaa !29
  %10 = getelementptr inbounds nuw %"class.std::__1::basic_streambuf", ptr %7, i32 0, i32 5
  store ptr %8, ptr %10, align 8, !tbaa !28
  %11 = load ptr, ptr %6, align 8, !tbaa !32
  %12 = getelementptr inbounds nuw %"class.std::__1::basic_streambuf", ptr %7, i32 0, i32 7
  store ptr %11, ptr %12, align 8, !tbaa !30
  ret void
}

; Function Attrs: inlinehint mustprogress uwtable
define linkonce_odr hidden noundef nonnull align 8 dereferenceable(8) ptr @_ZNSt3__13minB8ne210000IPcEERKT_S4_S4_(ptr noundef nonnull align 8 dereferenceable(8) %0, ptr noundef nonnull align 8 dereferenceable(8) %1) #7 comdat {
  %3 = alloca ptr, align 8
  %4 = alloca ptr, align 8
  store ptr %0, ptr %3, align 8, !tbaa !54
  store ptr %1, ptr %4, align 8, !tbaa !54
  %5 = load ptr, ptr %3, align 8, !tbaa !54
  %6 = load ptr, ptr %4, align 8, !tbaa !54
  %7 = call noundef nonnull align 8 dereferenceable(8) ptr @_ZNSt3__13minB8ne210000IPcNS_6__lessIvvEEEERKT_S6_S6_T0_(ptr noundef nonnull align 8 dereferenceable(8) %5, ptr noundef nonnull align 8 dereferenceable(8) %6)
  ret ptr %7
}

; Function Attrs: mustprogress nounwind uwtable
define linkonce_odr hidden noundef ptr @_ZNKSt3__115basic_streambufIcNS_11char_traitsIcEEE5pbaseB8ne210000Ev(ptr noundef nonnull align 8 dereferenceable(64) %0) #1 comdat align 2 {
  %2 = alloca ptr, align 8
  store ptr %0, ptr %2, align 8, !tbaa !23
  %3 = load ptr, ptr %2, align 8
  %4 = getelementptr inbounds nuw %"class.std::__1::basic_streambuf", ptr %3, i32 0, i32 5
  %5 = load ptr, ptr %4, align 8, !tbaa !28
  ret ptr %5
}

; Function Attrs: inlinehint mustprogress nounwind uwtable
define available_externally void @_ZNSt3__115basic_streambufIcNS_11char_traitsIcEEE4setgEPcS4_S4_(ptr noundef nonnull align 8 dereferenceable(64) %0, ptr noundef %1, ptr noundef %2, ptr noundef %3) #3 align 2 {
  %5 = alloca ptr, align 8
  %6 = alloca ptr, align 8
  %7 = alloca ptr, align 8
  %8 = alloca ptr, align 8
  store ptr %0, ptr %5, align 8, !tbaa !23
  store ptr %1, ptr %6, align 8, !tbaa !32
  store ptr %2, ptr %7, align 8, !tbaa !32
  store ptr %3, ptr %8, align 8, !tbaa !32
  %9 = load ptr, ptr %5, align 8
  %10 = load ptr, ptr %6, align 8, !tbaa !32
  %11 = getelementptr inbounds nuw %"class.std::__1::basic_streambuf", ptr %9, i32 0, i32 2
  store ptr %10, ptr %11, align 8, !tbaa !25
  %12 = load ptr, ptr %7, align 8, !tbaa !32
  %13 = getelementptr inbounds nuw %"class.std::__1::basic_streambuf", ptr %9, i32 0, i32 3
  store ptr %12, ptr %13, align 8, !tbaa !26
  %14 = load ptr, ptr %8, align 8, !tbaa !32
  %15 = getelementptr inbounds nuw %"class.std::__1::basic_streambuf", ptr %9, i32 0, i32 4
  store ptr %14, ptr %15, align 8, !tbaa !27
  ret void
}

; Function Attrs: inlinehint mustprogress uwtable
define linkonce_odr hidden noundef nonnull align 8 dereferenceable(8) ptr @_ZNSt3__13maxB8ne210000IPcEERKT_S4_S4_(ptr noundef nonnull align 8 dereferenceable(8) %0, ptr noundef nonnull align 8 dereferenceable(8) %1) #7 comdat {
  %3 = alloca ptr, align 8
  %4 = alloca ptr, align 8
  store ptr %0, ptr %3, align 8, !tbaa !54
  store ptr %1, ptr %4, align 8, !tbaa !54
  %5 = load ptr, ptr %3, align 8, !tbaa !54
  %6 = load ptr, ptr %4, align 8, !tbaa !54
  %7 = call noundef nonnull align 8 dereferenceable(8) ptr @_ZNSt3__13maxB8ne210000IPcNS_6__lessIvvEEEERKT_S6_S6_T0_(ptr noundef nonnull align 8 dereferenceable(8) %5, ptr noundef nonnull align 8 dereferenceable(8) %6)
  ret ptr %7
}

; Function Attrs: mustprogress nounwind uwtable
define linkonce_odr hidden noundef ptr @_ZNKSt3__115basic_streambufIcNS_11char_traitsIcEEE5ebackB8ne210000Ev(ptr noundef nonnull align 8 dereferenceable(64) %0) #1 comdat align 2 {
  %2 = alloca ptr, align 8
  store ptr %0, ptr %2, align 8, !tbaa !23
  %3 = load ptr, ptr %2, align 8
  %4 = getelementptr inbounds nuw %"class.std::__1::basic_streambuf", ptr %3, i32 0, i32 2
  %5 = load ptr, ptr %4, align 8, !tbaa !25
  ret ptr %5
}

; Function Attrs: mustprogress nounwind uwtable
define linkonce_odr hidden noundef ptr @_ZNKSt3__115basic_streambufIcNS_11char_traitsIcEEE5egptrB8ne210000Ev(ptr noundef nonnull align 8 dereferenceable(64) %0) #1 comdat align 2 {
  %2 = alloca ptr, align 8
  store ptr %0, ptr %2, align 8, !tbaa !23
  %3 = load ptr, ptr %2, align 8
  %4 = getelementptr inbounds nuw %"class.std::__1::basic_streambuf", ptr %3, i32 0, i32 4
  %5 = load ptr, ptr %4, align 8, !tbaa !27
  ret ptr %5
}

; Function Attrs: mustprogress nounwind uwtable
define linkonce_odr hidden noundef ptr @_ZNKSt3__115basic_streambufIcNS_11char_traitsIcEEE5epptrB8ne210000Ev(ptr noundef nonnull align 8 dereferenceable(64) %0) #1 comdat align 2 {
  %2 = alloca ptr, align 8
  store ptr %0, ptr %2, align 8, !tbaa !23
  %3 = load ptr, ptr %2, align 8
  %4 = getelementptr inbounds nuw %"class.std::__1::basic_streambuf", ptr %3, i32 0, i32 7
  %5 = load ptr, ptr %4, align 8, !tbaa !30
  ret ptr %5
}

; Function Attrs: mustprogress nounwind uwtable
define linkonce_odr hidden noundef i64 @_ZNKSt3__14fposI11__mbstate_tEcvxB8ne210000Ev(ptr noundef nonnull align 8 dereferenceable(16) %0) #1 comdat align 2 {
  %2 = alloca ptr, align 8
  store ptr %0, ptr %2, align 8, !tbaa !49
  %3 = load ptr, ptr %2, align 8
  %4 = getelementptr inbounds nuw %"class.std::__1::fpos", ptr %3, i32 0, i32 1
  %5 = load i64, ptr %4, align 8, !tbaa !51
  ret i64 %5
}

; Function Attrs: mustprogress nounwind uwtable
define linkonce_odr hidden noundef ptr @_ZNKSt3__115basic_streambufIcNS_11char_traitsIcEEE4pptrB8ne210000Ev(ptr noundef nonnull align 8 dereferenceable(64) %0) #1 comdat align 2 {
  %2 = alloca ptr, align 8
  store ptr %0, ptr %2, align 8, !tbaa !23
  %3 = load ptr, ptr %2, align 8
  %4 = getelementptr inbounds nuw %"class.std::__1::basic_streambuf", ptr %3, i32 0, i32 6
  %5 = load ptr, ptr %4, align 8, !tbaa !29
  ret ptr %5
}

; Function Attrs: mustprogress nounwind uwtable
define linkonce_odr hidden noundef ptr @_ZNKSt3__115basic_streambufIcNS_11char_traitsIcEEE4gptrB8ne210000Ev(ptr noundef nonnull align 8 dereferenceable(64) %0) #1 comdat align 2 {
  %2 = alloca ptr, align 8
  store ptr %0, ptr %2, align 8, !tbaa !23
  %3 = load ptr, ptr %2, align 8
  %4 = getelementptr inbounds nuw %"class.std::__1::basic_streambuf", ptr %3, i32 0, i32 3
  %5 = load ptr, ptr %4, align 8, !tbaa !26
  ret ptr %5
}

; Function Attrs: mustprogress nounwind uwtable
define linkonce_odr hidden void @_ZNSt3__14fposI11__mbstate_tEC2B8ne210000Ex(ptr noundef nonnull align 8 dereferenceable(16) %0, i64 noundef %1) unnamed_addr #1 comdat align 2 {
  %3 = alloca ptr, align 8
  %4 = alloca i64, align 8
  store ptr %0, ptr %3, align 8, !tbaa !49
  store i64 %1, ptr %4, align 8, !tbaa !45
  %5 = load ptr, ptr %3, align 8
  %6 = getelementptr inbounds nuw %"class.std::__1::fpos", ptr %5, i32 0, i32 0
  call void @llvm.memset.p0.i64(ptr align 8 %6, i8 0, i64 8, i1 false)
  %7 = getelementptr inbounds nuw %"class.std::__1::fpos", ptr %5, i32 0, i32 1
  %8 = load i64, ptr %4, align 8, !tbaa !45
  store i64 %8, ptr %7, align 8, !tbaa !51
  ret void
}

; Function Attrs: mustprogress uwtable
define dso_local { i64, i64 } @_ZNSt3__112strstreambuf7seekposENS_4fposI11__mbstate_tEEj(ptr noundef nonnull align 8 dereferenceable(96) %0, i64 %1, i64 %2, i32 noundef %3) unnamed_addr #0 align 2 {
  %5 = alloca %"class.std::__1::fpos", align 8
  %6 = alloca %"class.std::__1::fpos", align 8
  %7 = alloca ptr, align 8
  %8 = alloca i32, align 4
  %9 = alloca i8, align 1
  %10 = alloca i8, align 1
  %11 = alloca i32, align 4
  %12 = alloca i64, align 8
  %13 = alloca ptr, align 8
  %14 = alloca ptr, align 8
  %15 = alloca ptr, align 8
  %16 = alloca i64, align 8
  %17 = alloca ptr, align 8
  %18 = getelementptr inbounds nuw { i64, i64 }, ptr %6, i32 0, i32 0
  store i64 %1, ptr %18, align 8
  %19 = getelementptr inbounds nuw { i64, i64 }, ptr %6, i32 0, i32 1
  store i64 %2, ptr %19, align 8
  store ptr %0, ptr %7, align 8, !tbaa !4
  store i32 %3, ptr %8, align 4, !tbaa !35
  %20 = load ptr, ptr %7, align 8
  call void @llvm.lifetime.start.p0(i64 1, ptr %9) #14
  %21 = load i32, ptr %8, align 4, !tbaa !35
  %22 = and i32 %21, 8
  %23 = icmp ne i32 %22, 0
  %24 = zext i1 %23 to i8
  store i8 %24, ptr %9, align 1, !tbaa !40
  call void @llvm.lifetime.start.p0(i64 1, ptr %10) #14
  %25 = load i32, ptr %8, align 4, !tbaa !35
  %26 = and i32 %25, 16
  %27 = icmp ne i32 %26, 0
  %28 = zext i1 %27 to i8
  store i8 %28, ptr %10, align 1, !tbaa !40
  %29 = load i8, ptr %9, align 1, !tbaa !40, !range !42, !noundef !43
  %30 = trunc i8 %29 to i1
  br i1 %30, label %35, label %31

31:                                               ; preds = %4
  %32 = load i8, ptr %10, align 1, !tbaa !40, !range !42, !noundef !43
  %33 = trunc i8 %32 to i1
  br i1 %33, label %35, label %34

34:                                               ; preds = %31
  call void @_ZNSt3__14fposI11__mbstate_tEC2B8ne210000Ex(ptr noundef nonnull align 8 dereferenceable(16) %5, i64 noundef -1)
  store i32 1, ptr %11, align 4
  br label %104

35:                                               ; preds = %31, %4
  %36 = load i8, ptr %9, align 1, !tbaa !40, !range !42, !noundef !43
  %37 = trunc i8 %36 to i1
  br i1 %37, label %38, label %41

38:                                               ; preds = %35
  %39 = call noundef ptr @_ZNKSt3__115basic_streambufIcNS_11char_traitsIcEEE4gptrB8ne210000Ev(ptr noundef nonnull align 8 dereferenceable(64) %20)
  %40 = icmp eq ptr %39, null
  br i1 %40, label %47, label %41

41:                                               ; preds = %38, %35
  %42 = load i8, ptr %10, align 1, !tbaa !40, !range !42, !noundef !43
  %43 = trunc i8 %42 to i1
  br i1 %43, label %44, label %48

44:                                               ; preds = %41
  %45 = call noundef ptr @_ZNKSt3__115basic_streambufIcNS_11char_traitsIcEEE4pptrB8ne210000Ev(ptr noundef nonnull align 8 dereferenceable(64) %20)
  %46 = icmp eq ptr %45, null
  br i1 %46, label %47, label %48

47:                                               ; preds = %44, %38
  call void @_ZNSt3__14fposI11__mbstate_tEC2B8ne210000Ex(ptr noundef nonnull align 8 dereferenceable(16) %5, i64 noundef -1)
  store i32 1, ptr %11, align 4
  br label %104

48:                                               ; preds = %44, %41
  call void @llvm.lifetime.start.p0(i64 8, ptr %12) #14
  %49 = call noundef i64 @_ZNKSt3__14fposI11__mbstate_tEcvxB8ne210000Ev(ptr noundef nonnull align 8 dereferenceable(16) %6)
  store i64 %49, ptr %12, align 8, !tbaa !45
  call void @llvm.lifetime.start.p0(i64 8, ptr %13) #14
  %50 = call noundef ptr @_ZNKSt3__115basic_streambufIcNS_11char_traitsIcEEE5epptrB8ne210000Ev(ptr noundef nonnull align 8 dereferenceable(64) %20)
  %51 = icmp ne ptr %50, null
  br i1 %51, label %52, label %54

52:                                               ; preds = %48
  %53 = call noundef ptr @_ZNKSt3__115basic_streambufIcNS_11char_traitsIcEEE5epptrB8ne210000Ev(ptr noundef nonnull align 8 dereferenceable(64) %20)
  br label %56

54:                                               ; preds = %48
  %55 = call noundef ptr @_ZNKSt3__115basic_streambufIcNS_11char_traitsIcEEE5egptrB8ne210000Ev(ptr noundef nonnull align 8 dereferenceable(64) %20)
  br label %56

56:                                               ; preds = %54, %52
  %57 = phi ptr [ %53, %52 ], [ %55, %54 ]
  store ptr %57, ptr %13, align 8, !tbaa !32
  %58 = load i64, ptr %12, align 8, !tbaa !45
  %59 = icmp slt i64 %58, 0
  br i1 %59, label %68, label %60

60:                                               ; preds = %56
  %61 = load i64, ptr %12, align 8, !tbaa !45
  %62 = load ptr, ptr %13, align 8, !tbaa !32
  %63 = call noundef ptr @_ZNKSt3__115basic_streambufIcNS_11char_traitsIcEEE5ebackB8ne210000Ev(ptr noundef nonnull align 8 dereferenceable(64) %20)
  %64 = ptrtoint ptr %62 to i64
  %65 = ptrtoint ptr %63 to i64
  %66 = sub i64 %64, %65
  %67 = icmp sgt i64 %61, %66
  br i1 %67, label %68, label %69

68:                                               ; preds = %60, %56
  call void @_ZNSt3__14fposI11__mbstate_tEC2B8ne210000Ex(ptr noundef nonnull align 8 dereferenceable(16) %5, i64 noundef -1)
  store i32 1, ptr %11, align 4
  br label %103

69:                                               ; preds = %60
  call void @llvm.lifetime.start.p0(i64 8, ptr %14) #14
  %70 = call noundef ptr @_ZNKSt3__115basic_streambufIcNS_11char_traitsIcEEE5ebackB8ne210000Ev(ptr noundef nonnull align 8 dereferenceable(64) %20)
  %71 = load i64, ptr %12, align 8, !tbaa !45
  %72 = getelementptr inbounds i8, ptr %70, i64 %71
  store ptr %72, ptr %14, align 8, !tbaa !32
  %73 = load i8, ptr %9, align 1, !tbaa !40, !range !42, !noundef !43
  %74 = trunc i8 %73 to i1
  br i1 %74, label %75, label %81

75:                                               ; preds = %69
  %76 = call noundef ptr @_ZNKSt3__115basic_streambufIcNS_11char_traitsIcEEE5ebackB8ne210000Ev(ptr noundef nonnull align 8 dereferenceable(64) %20)
  %77 = load ptr, ptr %14, align 8, !tbaa !32
  call void @llvm.lifetime.start.p0(i64 8, ptr %15) #14
  %78 = call noundef ptr @_ZNKSt3__115basic_streambufIcNS_11char_traitsIcEEE5egptrB8ne210000Ev(ptr noundef nonnull align 8 dereferenceable(64) %20)
  store ptr %78, ptr %15, align 8, !tbaa !32
  %79 = call noundef nonnull align 8 dereferenceable(8) ptr @_ZNSt3__13maxB8ne210000IPcEERKT_S4_S4_(ptr noundef nonnull align 8 dereferenceable(8) %14, ptr noundef nonnull align 8 dereferenceable(8) %15)
  %80 = load ptr, ptr %79, align 8, !tbaa !32
  call void @_ZNSt3__115basic_streambufIcNS_11char_traitsIcEEE4setgEPcS4_S4_(ptr noundef nonnull align 8 dereferenceable(64) %20, ptr noundef %76, ptr noundef %77, ptr noundef %80)
  call void @llvm.lifetime.end.p0(i64 8, ptr %15) #14
  br label %81

81:                                               ; preds = %75, %69
  %82 = load i8, ptr %10, align 1, !tbaa !40, !range !42, !noundef !43
  %83 = trunc i8 %82 to i1
  br i1 %83, label %84, label %101

84:                                               ; preds = %81
  call void @llvm.lifetime.start.p0(i64 8, ptr %16) #14
  %85 = call noundef ptr @_ZNKSt3__115basic_streambufIcNS_11char_traitsIcEEE5epptrB8ne210000Ev(ptr noundef nonnull align 8 dereferenceable(64) %20)
  %86 = load ptr, ptr %14, align 8, !tbaa !32
  %87 = ptrtoint ptr %85 to i64
  %88 = ptrtoint ptr %86 to i64
  %89 = sub i64 %87, %88
  store i64 %89, ptr %16, align 8, !tbaa !45
  call void @llvm.lifetime.start.p0(i64 8, ptr %17) #14
  %90 = call noundef ptr @_ZNKSt3__115basic_streambufIcNS_11char_traitsIcEEE5pbaseB8ne210000Ev(ptr noundef nonnull align 8 dereferenceable(64) %20)
  store ptr %90, ptr %17, align 8, !tbaa !32
  %91 = call noundef nonnull align 8 dereferenceable(8) ptr @_ZNSt3__13minB8ne210000IPcEERKT_S4_S4_(ptr noundef nonnull align 8 dereferenceable(8) %17, ptr noundef nonnull align 8 dereferenceable(8) %14)
  %92 = load ptr, ptr %91, align 8, !tbaa !32
  %93 = call noundef ptr @_ZNKSt3__115basic_streambufIcNS_11char_traitsIcEEE5epptrB8ne210000Ev(ptr noundef nonnull align 8 dereferenceable(64) %20)
  call void @_ZNSt3__115basic_streambufIcNS_11char_traitsIcEEE4setpEPcS4_(ptr noundef nonnull align 8 dereferenceable(64) %20, ptr noundef %92, ptr noundef %93)
  call void @llvm.lifetime.end.p0(i64 8, ptr %17) #14
  %94 = call noundef ptr @_ZNKSt3__115basic_streambufIcNS_11char_traitsIcEEE5epptrB8ne210000Ev(ptr noundef nonnull align 8 dereferenceable(64) %20)
  %95 = call noundef ptr @_ZNKSt3__115basic_streambufIcNS_11char_traitsIcEEE5pbaseB8ne210000Ev(ptr noundef nonnull align 8 dereferenceable(64) %20)
  %96 = ptrtoint ptr %94 to i64
  %97 = ptrtoint ptr %95 to i64
  %98 = sub i64 %96, %97
  %99 = load i64, ptr %16, align 8, !tbaa !45
  %100 = sub nsw i64 %98, %99
  call void @_ZNSt3__115basic_streambufIcNS_11char_traitsIcEEE7__pbumpB8ne210000El(ptr noundef nonnull align 8 dereferenceable(64) %20, i64 noundef %100)
  call void @llvm.lifetime.end.p0(i64 8, ptr %16) #14
  br label %101

101:                                              ; preds = %84, %81
  %102 = load i64, ptr %12, align 8, !tbaa !45
  call void @_ZNSt3__14fposI11__mbstate_tEC2B8ne210000Ex(ptr noundef nonnull align 8 dereferenceable(16) %5, i64 noundef %102)
  store i32 1, ptr %11, align 4
  call void @llvm.lifetime.end.p0(i64 8, ptr %14) #14
  br label %103

103:                                              ; preds = %101, %68
  call void @llvm.lifetime.end.p0(i64 8, ptr %13) #14
  call void @llvm.lifetime.end.p0(i64 8, ptr %12) #14
  br label %104

104:                                              ; preds = %103, %47, %34
  call void @llvm.lifetime.end.p0(i64 1, ptr %10) #14
  call void @llvm.lifetime.end.p0(i64 1, ptr %9) #14
  %105 = load { i64, i64 }, ptr %5, align 8
  ret { i64, i64 } %105
}