; Function Attrs: mustprogress nofree norecurse nosync nounwind willreturn memory(argmem: readwrite) uwtable
define dso_local { i64, i64 } @_ZNSt3__112strstreambuf7seekposENS_4fposI11__mbstate_tEEj(ptr noundef nonnull align 8 captures(none) dereferenceable(96) %0, i64 %1, i64 %2, i32 noundef %3) unnamed_addr #6 align 2 {
  %5 = and i32 %3, 8
  %.not = icmp ne i32 %5, 0
  %6 = and i32 %3, 16
  %.not15 = icmp ne i32 %6, 0
  %7 = and i32 %3, 24
  %or.cond.not = icmp eq i32 %7, 0
  br i1 %or.cond.not, label %42, label %8

8:                                                ; preds = %4
  %9 = getelementptr inbounds nuw i8, ptr %0, i64 24
  %10 = load ptr, ptr %9, align 8
  %11 = icmp eq ptr %10, null
  %or.cond = select i1 %.not, i1 %11, i1 false
  br i1 %or.cond, label %42, label %12

12:                                               ; preds = %8
  %13 = getelementptr inbounds nuw i8, ptr %0, i64 48
  %14 = load ptr, ptr %13, align 8
  %15 = icmp eq ptr %14, null
  %or.cond29 = select i1 %.not15, i1 %15, i1 false
  %16 = icmp slt i64 %2, 0
  %or.cond30 = select i1 %or.cond29, i1 true, i1 %16
  br i1 %or.cond30, label %42, label %17

17:                                               ; preds = %12
  %18 = getelementptr inbounds nuw i8, ptr %0, i64 56
  %19 = load ptr, ptr %18, align 8, !tbaa !22
  %.not16 = icmp eq ptr %19, null
  %20 = getelementptr inbounds nuw i8, ptr %0, i64 32
  %21 = load ptr, ptr %20, align 8
  %22 = select i1 %.not16, ptr %21, ptr %19
  %23 = getelementptr inbounds nuw i8, ptr %0, i64 16
  %24 = load ptr, ptr %23, align 8, !tbaa !23
  %25 = ptrtoint ptr %22 to i64
  %26 = ptrtoint ptr %24 to i64
  %27 = sub i64 %25, %26
  %28 = icmp sgt i64 %2, %27
  br i1 %28, label %42, label %29

29:                                               ; preds = %17
  %30 = getelementptr inbounds nuw i8, ptr %24, i64 %2
  br i1 %.not, label %31, label %33

31:                                               ; preds = %29
  %32 = icmp ult ptr %30, %21
  %.sroa.speculated18 = select i1 %32, ptr %21, ptr %30
  store ptr %30, ptr %9, align 8, !tbaa !24
  store ptr %.sroa.speculated18, ptr %20, align 8, !tbaa !25
  br label %33

33:                                               ; preds = %31, %29
  br i1 %.not15, label %34, label %42

34:                                               ; preds = %33
  %35 = ptrtoint ptr %30 to i64
  %36 = getelementptr inbounds nuw i8, ptr %0, i64 40
  %37 = load ptr, ptr %36, align 8, !tbaa !21
  %38 = icmp ult ptr %30, %37
  %.sroa.speculated = select i1 %38, ptr %30, ptr %37
  store ptr %.sroa.speculated, ptr %36, align 8, !tbaa !21
  %39 = ptrtoint ptr %.sroa.speculated to i64
  %40 = sub i64 %35, %39
  %41 = getelementptr inbounds i8, ptr %.sroa.speculated, i64 %40
  store ptr %41, ptr %13, align 8, !tbaa !20
  br label %42

42:                                               ; preds = %12, %8, %33, %34, %17, %4
  %.sroa.5.0 = phi i64 [ -1, %4 ], [ -1, %17 ], [ %2, %34 ], [ %2, %33 ], [ -1, %8 ], [ -1, %12 ]
  %.fca.1.insert = insertvalue { i64, i64 } { i64 0, i64 poison }, i64 %.sroa.5.0, 1
  ret { i64, i64 } %.fca.1.insert
}